; Function Attrs: nounwind uwtable
define dso_local { ptr, ptr } @gen_op_targetlater(i32 noundef %0) local_unnamed_addr #1 {
  %2 = tail call ptr @jv_mem_alloc(i64 noundef 160) #17
  %3 = getelementptr inbounds nuw i8, ptr %2, i64 16
  tail call void @llvm.memset.p0.i64(ptr noundef nonnull align 8 dereferenceable(16) %2, i8 0, i64 16, i1 false)
  store i32 %0, ptr %3, align 8, !tbaa !25
  %4 = getelementptr inbounds nuw i8, ptr %2, i64 152
  store i32 -1, ptr %4, align 8, !tbaa !26
  %5 = getelementptr inbounds nuw i8, ptr %2, i64 80
  %6 = getelementptr inbounds nuw i8, ptr %2, i64 104
  tail call void @llvm.memset.p0.i64(ptr noundef nonnull align 8 dereferenceable(24) %5, i8 0, i64 24, i1 false)
  store i32 -1, ptr %6, align 8, !tbaa !27
  %7 = getelementptr inbounds nuw i8, ptr %2, i64 108
  store i32 -1, ptr %7, align 4, !tbaa !28
  %8 = getelementptr inbounds nuw i8, ptr %2, i64 112
  %9 = getelementptr inbounds nuw i8, ptr %2, i64 72
  tail call void @llvm.memset.p0.i64(ptr noundef nonnull align 8 dereferenceable(32) %8, i8 0, i64 32, i1 false)
  store i64 -1, ptr %9, align 8
  %10 = getelementptr inbounds nuw i8, ptr %2, i64 64
  store ptr null, ptr %10, align 8, !tbaa !21
  %11 = getelementptr inbounds nuw i8, ptr %2, i64 32
  store ptr null, ptr %11, align 8, !tbaa !32
  %.fca.0.insert.i = insertvalue { ptr, ptr } poison, ptr %2, 0
  %.fca.1.insert.i = insertvalue { ptr, ptr } %.fca.0.insert.i, ptr %2, 1
  ret { ptr, ptr } %.fca.1.insert.i
}